; Function Attrs: mustprogress uwtable
define void @_ZN8facebook5velox6memory14MemoryPoolImpl5abortERKNSt15__exception_ptr13exception_ptrE(ptr noundef nonnull align 8 dereferenceable(480) %this, ptr noundef nonnull align 8 dereferenceable(8) %error) unnamed_addr #0 align 2 personality ptr @__gxx_personality_v0 {
_ZNSt15__exception_ptr13exception_ptrD2Ev.exit:
  %ref.tmp.i.i = alloca %"class.std::__exception_ptr::exception_ptr", align 8
  %0 = load ptr, ptr %error, align 8
  %cmp.i.not = icmp eq ptr %0, null
  br i1 %cmp.i.not, label %if.then, label %if.end

if.then:                                          ; preds = %_ZNSt15__exception_ptr13exception_ptrD2Ev.exit
  tail call void @llvm.trap()
  unreachable

if.end:                                           ; preds = %_ZNSt15__exception_ptr13exception_ptrD2Ev.exit
  %parent_ = getelementptr inbounds i8, ptr %this, i64 64
  %1 = load ptr, ptr %parent_, align 8
  %cmp.i.i.not = icmp eq ptr %1, null
  br i1 %cmp.i.i.not, label %if.end6, label %if.then3

if.then3:                                         ; preds = %if.end
  %vtable = load ptr, ptr %1, align 8
  %vfn = getelementptr inbounds i8, ptr %vtable, i64 344
  %2 = load ptr, ptr %vfn, align 8
  tail call void %2(ptr noundef nonnull align 8 dereferenceable(168) %1, ptr noundef nonnull align 8 dereferenceable(8) %error)
  br label %return

if.end6:                                          ; preds = %if.end
  %vtable7 = load ptr, ptr %this, align 8
  %vfn8 = getelementptr inbounds i8, ptr %vtable7, i64 304
  %3 = load ptr, ptr %vfn8, align 8
  %call9 = tail call noundef ptr %3(ptr noundef nonnull align 8 dereferenceable(480) %this)
  %cmp = icmp eq ptr %call9, null
  br i1 %cmp, label %if.then10, label %if.end11

if.then10:                                        ; preds = %if.end6
  tail call void @llvm.trap()
  unreachable

if.end11:                                         ; preds = %if.end6
  %aborted_.i = getelementptr inbounds i8, ptr %this, i64 93
  %4 = load atomic i8, ptr %aborted_.i seq_cst, align 1
  %5 = and i8 %4, 1
  %tobool.i.i.not.i = icmp eq i8 %5, 0
  br i1 %tobool.i.i.not.i, label %if.end.i, label %if.then.i4

if.then.i4:                                       ; preds = %if.end11
  tail call void @llvm.trap()
  unreachable

if.end.i:                                         ; preds = %if.end11
  %abortError_.i = getelementptr inbounds i8, ptr %this, i64 96
  call void @llvm.lifetime.start.p0(i64 8, ptr nonnull %ref.tmp.i.i)
  %6 = load ptr, ptr %error, align 8
  store ptr %6, ptr %ref.tmp.i.i, align 8
  %tobool.not.i.i.i = icmp eq ptr %6, null
  br i1 %tobool.not.i.i.i, label %_ZNSt15__exception_ptr13exception_ptrC2ERKS0_.exit.i.i, label %if.then.i.i.i

if.then.i.i.i:                                    ; preds = %if.end.i
  call void @_ZNSt15__exception_ptr13exception_ptr9_M_addrefEv(ptr noundef nonnull align 8 dereferenceable(8) %ref.tmp.i.i) #26
  %.pre.i.i = load ptr, ptr %ref.tmp.i.i, align 8
  br label %_ZNSt15__exception_ptr13exception_ptrC2ERKS0_.exit.i.i

_ZNSt15__exception_ptr13exception_ptrC2ERKS0_.exit.i.i: ; preds = %if.then.i.i.i, %if.end.i
  %7 = phi ptr [ null, %if.end.i ], [ %.pre.i.i, %if.then.i.i.i ]
  %8 = load ptr, ptr %abortError_.i, align 8
  store ptr %8, ptr %ref.tmp.i.i, align 8
  store ptr %7, ptr %abortError_.i, align 8
  %tobool.not.i1.i.i = icmp eq ptr %8, null
  br i1 %tobool.not.i1.i.i, label %_ZN8facebook5velox6memory14MemoryPoolImpl13setAbortErrorERKNSt15__exception_ptr13exception_ptrE.exit, label %if.then.i2.i.i

if.then.i2.i.i:                                   ; preds = %_ZNSt15__exception_ptr13exception_ptrC2ERKS0_.exit.i.i
  call void @_ZNSt15__exception_ptr13exception_ptr10_M_releaseEv(ptr noundef nonnull align 8 dereferenceable(8) %ref.tmp.i.i) #26
  br label %_ZN8facebook5velox6memory14MemoryPoolImpl13setAbortErrorERKNSt15__exception_ptr13exception_ptrE.exit

_ZN8facebook5velox6memory14MemoryPoolImpl13setAbortErrorERKNSt15__exception_ptr13exception_ptrE.exit: ; preds = %_ZNSt15__exception_ptr13exception_ptrC2ERKS0_.exit.i.i, %if.then.i2.i.i
  call void @llvm.lifetime.end.p0(i64 8, ptr nonnull %ref.tmp.i.i)
  store atomic i8 1, ptr %aborted_.i seq_cst, align 1
  %vtable12 = load ptr, ptr %this, align 8
  %vfn13 = getelementptr inbounds i8, ptr %vtable12, i64 304
  %9 = load ptr, ptr %vfn13, align 8
  %call14 = call noundef ptr %9(ptr noundef nonnull align 8 dereferenceable(480) %this)
  %vtable15 = load ptr, ptr %call14, align 8
  %vfn16 = getelementptr inbounds i8, ptr %vtable15, i64 48
  %10 = load ptr, ptr %vfn16, align 8
  call void %10(ptr noundef nonnull align 8 dereferenceable(8) %call14, ptr noundef nonnull %this, ptr noundef nonnull align 8 dereferenceable(8) %error)
  br label %return

return:                                           ; preds = %_ZN8facebook5velox6memory14MemoryPoolImpl13setAbortErrorERKNSt15__exception_ptr13exception_ptrE.exit, %if.then3
  ret void
}